; Function Attrs: mustprogress uwtable
define hidden noundef zeroext i1 @_ZN2cv3dnn25ReadProtoFromBinaryBufferEPKcmPN6google8protobuf7MessageE(ptr noundef %0, i64 noundef %1, ptr noundef %2) local_unnamed_addr #7 personality ptr @__gxx_personality_v0 {
.noexc:
  %3 = alloca %"class.google::protobuf::io::CodedInputStream", align 8
  %4 = alloca %"class.google::protobuf::io::ArrayInputStream", align 8
  call void @llvm.lifetime.start.p0(i64 32, ptr nonnull %4) #23
  %5 = trunc i64 %1 to i32
  call void @_ZN6google8protobuf2io16ArrayInputStreamC1EPKvii(ptr noundef nonnull align 8 dereferenceable(32) %4, ptr noundef %0, i32 noundef %5, i32 noundef -1)
  call void @llvm.lifetime.start.p0(i64 80, ptr nonnull %3) #23
  %6 = getelementptr inbounds nuw i8, ptr %3, i64 16
  call void @llvm.memset.p0.i64(ptr noundef nonnull align 8 dereferenceable(80) %3, i8 0, i64 16, i1 false)
  store ptr %4, ptr %6, align 8, !tbaa !432
  %7 = getelementptr inbounds nuw i8, ptr %3, i64 24
  %8 = getelementptr inbounds nuw i8, ptr %3, i64 40
  call void @llvm.memset.p0.i64(ptr noundef nonnull align 8 dereferenceable(14) %7, i8 0, i64 14, i1 false)
  store i32 2147483647, ptr %8, align 8, !tbaa !437
  %9 = getelementptr inbounds nuw i8, ptr %3, i64 44
  store i32 0, ptr %9, align 4, !tbaa !438
  %10 = getelementptr inbounds nuw i8, ptr %3, i64 48
  store i32 2147483647, ptr %10, align 8, !tbaa !439
  %11 = getelementptr inbounds nuw i8, ptr %3, i64 52
  %12 = load i32, ptr @_ZN6google8protobuf2io16CodedInputStream24default_recursion_limit_E, align 4, !tbaa !17
  store i32 %12, ptr %11, align 4, !tbaa !440
  %13 = getelementptr inbounds nuw i8, ptr %3, i64 56
  store i32 %12, ptr %13, align 8, !tbaa !441
  %14 = getelementptr inbounds nuw i8, ptr %3, i64 64
  call void @llvm.memset.p0.i64(ptr noundef nonnull align 8 dereferenceable(16) %14, i8 0, i64 16, i1 false)
  %15 = call noundef zeroext i1 @_ZN6google8protobuf2io16CodedInputStream7RefreshEv(ptr noundef nonnull align 8 dereferenceable(80) %3)
  invoke void @_ZN6google8protobuf2io16CodedInputStream18SetTotalBytesLimitEi(ptr noundef nonnull align 8 dereferenceable(80) %3, i32 noundef 2147483647)
          to label %16 unwind label %.body

16:                                               ; preds = %.noexc
  %17 = invoke noundef zeroext i1 @_ZN6google8protobuf11MessageLite20ParseFromCodedStreamEPNS0_2io16CodedInputStreamE(ptr noundef nonnull align 8 dereferenceable(16) %2, ptr noundef nonnull %3)
          to label %19 unwind label %.body

.body:                                            ; preds = %16, %.noexc
  %18 = landingpad { ptr, i32 }
          cleanup
  call void @_ZN6google8protobuf2io16CodedInputStreamD1Ev(ptr noundef nonnull align 8 dereferenceable(80) %3) #23
  call void @llvm.lifetime.end.p0(i64 80, ptr nonnull %3) #23
  call void @llvm.lifetime.end.p0(i64 32, ptr nonnull %4) #23
  resume { ptr, i32 } %18

19:                                               ; preds = %16
  call void @_ZN6google8protobuf2io16CodedInputStreamD1Ev(ptr noundef nonnull align 8 dereferenceable(80) %3) #23
  call void @llvm.lifetime.end.p0(i64 80, ptr nonnull %3) #23
  call void @llvm.lifetime.end.p0(i64 32, ptr nonnull %4) #23
  ret i1 %17
}